target datalayout = "e-m:e-p270:32:32-p271:32:32-p272:64:64-i64:64-i128:128-f80:128-n8:16:32:64-S128"
target triple = "x86_64-unknown-linux-gnu"

%"struct.node::AssertionInfo" = type { ptr, ptr, ptr }
%"class.std::__cxx11::basic_string" = type { %"struct.std::__cxx11::basic_string<char>::_Alloc_hider", i64, %union.anon.81 }
%"struct.std::__cxx11::basic_string<char>::_Alloc_hider" = type { ptr }
%union.anon.81 = type { i64, [8 x i8] }
%"class.std::vector.96" = type { %"struct.std::_Vector_base.97" }
%"struct.std::_Vector_base.97" = type { %"struct.std::_Vector_base<std::__cxx11::basic_string<char>, std::allocator<std::__cxx11::basic_string<char>>>::_Vector_impl" }
%"struct.std::_Vector_base<std::__cxx11::basic_string<char>, std::allocator<std::__cxx11::basic_string<char>>>::_Vector_impl" = type { %"struct.std::_Vector_base<std::__cxx11::basic_string<char>, std::allocator<std::__cxx11::basic_string<char>>>::_Vector_impl_data" }
%"struct.std::_Vector_base<std::__cxx11::basic_string<char>, std::allocator<std::__cxx11::basic_string<char>>>::_Vector_impl_data" = type { ptr, ptr, ptr }
%"struct.node::SnapshotData" = type { i32, %"struct.node::SnapshotMetadata", %"class.v8::StartupData", %"struct.node::IsolateDataSerializeInfo", %"struct.node::EnvSerializeInfo", %"class.std::vector.386" }
%"struct.node::SnapshotMetadata" = type { i8, %"class.std::__cxx11::basic_string", %"class.std::__cxx11::basic_string", %"class.std::__cxx11::basic_string", i32, i32 }
%"class.v8::StartupData" = type { ptr, i32 }
%"struct.node::IsolateDataSerializeInfo" = type { %"class.std::vector.376", %"class.std::vector.381" }
%"class.std::vector.376" = type { %"struct.std::_Vector_base.377" }
%"struct.std::_Vector_base.377" = type { %"struct.std::_Vector_base<unsigned long, std::allocator<unsigned long>>::_Vector_impl" }
%"struct.std::_Vector_base<unsigned long, std::allocator<unsigned long>>::_Vector_impl" = type { %"struct.std::_Vector_base<unsigned long, std::allocator<unsigned long>>::_Vector_impl_data" }
%"struct.std::_Vector_base<unsigned long, std::allocator<unsigned long>>::_Vector_impl_data" = type { ptr, ptr, ptr }
%"class.std::vector.381" = type { %"struct.std::_Vector_base.382" }
%"struct.std::_Vector_base.382" = type { %"struct.std::_Vector_base<node::PropInfo, std::allocator<node::PropInfo>>::_Vector_impl" }
%"struct.std::_Vector_base<node::PropInfo, std::allocator<node::PropInfo>>::_Vector_impl" = type { %"struct.std::_Vector_base<node::PropInfo, std::allocator<node::PropInfo>>::_Vector_impl_data" }
%"struct.std::_Vector_base<node::PropInfo, std::allocator<node::PropInfo>>::_Vector_impl_data" = type { ptr, ptr, ptr }
%"struct.node::EnvSerializeInfo" = type { %"struct.node::AsyncHooks::SerializeInfo", %"struct.node::TickInfo::SerializeInfo", %"struct.node::ImmediateInfo::SerializeInfo", i64, %"struct.node::performance::PerformanceState::SerializeInfo", i64, i64, i64, %"struct.node::RealmSerializeInfo" }
%"struct.node::AsyncHooks::SerializeInfo" = type { i64, i64, i64, i64, %"class.std::vector.376" }
%"struct.node::TickInfo::SerializeInfo" = type { i64 }
%"struct.node::ImmediateInfo::SerializeInfo" = type { i64 }
%"struct.node::performance::PerformanceState::SerializeInfo" = type { i64, i64, i64 }
%"struct.node::RealmSerializeInfo" = type { %"class.std::vector.96", %"class.std::vector.381", %"class.std::vector.381", i64 }
%"class.std::vector.386" = type { %"struct.std::_Vector_base.387" }
%"struct.std::_Vector_base.387" = type { %"struct.std::_Vector_base<node::builtins::CodeCacheInfo, std::allocator<node::builtins::CodeCacheInfo>>::_Vector_impl" }
%"struct.std::_Vector_base<node::builtins::CodeCacheInfo, std::allocator<node::builtins::CodeCacheInfo>>::_Vector_impl" = type { %"struct.std::_Vector_base<node::builtins::CodeCacheInfo, std::allocator<node::builtins::CodeCacheInfo>>::_Vector_impl_data" }
%"struct.std::_Vector_base<node::builtins::CodeCacheInfo, std::allocator<node::builtins::CodeCacheInfo>>::_Vector_impl_data" = type { ptr, ptr, ptr }
%"class.node::EmbedderSnapshotData" = type <{ ptr, i8, [7 x i8] }>

@_ZZNK4node20EmbedderSnapshotData18DeleteSnapshotDataclEPKS0_E4args = internal constant %"struct.node::AssertionInfo" { ptr @.str.14, ptr @.str.15, ptr @.str.16 }, align 8

; Function Attrs: mustprogress nounwind uwtable
define dso_local void @_ZNK4node20EmbedderSnapshotData18DeleteSnapshotDataclEPKS0_(ptr noundef nonnull align 1 dereferenceable(1) %this, ptr noundef %data) #4 align 2 {
entry:
  %this.addr = alloca ptr, align 8
  %data.addr = alloca ptr, align 8
  store ptr %this, ptr %this.addr, align 8
  store ptr %data, ptr %data.addr, align 8
  br label %do.body

do.body:                                          ; preds = %entry
  %0 = load ptr, ptr %data.addr, align 8
  %owns_impl_ = getelementptr inbounds %"class.node::EmbedderSnapshotData", ptr %0, i32 0, i32 1
  %1 = load i8, ptr %owns_impl_, align 8
  %tobool = trunc i8 %1 to i1
  br i1 %tobool, label %lor.rhs, label %lor.end

lor.rhs:                                          ; preds = %do.body
  %2 = load ptr, ptr %data.addr, align 8
  %impl_ = getelementptr inbounds %"class.node::EmbedderSnapshotData", ptr %2, i32 0, i32 0
  %3 = load ptr, ptr %impl_, align 8
  %tobool2 = icmp ne ptr %3, null
  br label %lor.end

lor.end:                                          ; preds = %lor.rhs, %do.body
  %4 = phi i1 [ true, %do.body ], [ %tobool2, %lor.rhs ]
  %lnot = xor i1 %4, true
  %lnot3 = xor i1 %lnot, true
  %lnot4 = xor i1 %lnot3, true
  br i1 %lnot4, label %if.then, label %if.end

if.then:                                          ; preds = %lor.end
  br label %do.body5

do.body5:                                         ; preds = %if.then
  call void @_ZN4node6AssertERKNS_13AssertionInfoE(ptr noundef nonnull align 8 dereferenceable(24) @_ZZNK4node20EmbedderSnapshotData18DeleteSnapshotDataclEPKS0_E4args)
  call void @abort() #15
  unreachable

do.end:                                           ; No predecessors!
  br label %if.end

if.end:                                           ; preds = %do.end, %lor.end
  br label %do.end6

do.end6:                                          ; preds = %if.end
  %5 = load ptr, ptr %data.addr, align 8
  %owns_impl_7 = getelementptr inbounds %"class.node::EmbedderSnapshotData", ptr %5, i32 0, i32 1
  %6 = load i8, ptr %owns_impl_7, align 8
  %tobool8 = trunc i8 %6 to i1
  br i1 %tobool8, label %land.lhs.true, label %if.end12

land.lhs.true:                                    ; preds = %do.end6
  %7 = load ptr, ptr %data.addr, align 8
  %impl_9 = getelementptr inbounds %"class.node::EmbedderSnapshotData", ptr %7, i32 0, i32 0
  %8 = load ptr, ptr %impl_9, align 8
  %data_ownership = getelementptr inbounds %"struct.node::SnapshotData", ptr %8, i32 0, i32 0
  %9 = load i32, ptr %data_ownership, align 8
  %cmp = icmp eq i32 %9, 0
  br i1 %cmp, label %if.then10, label %if.end12

if.then10:                                        ; preds = %land.lhs.true
  %10 = load ptr, ptr %data.addr, align 8
  %impl_11 = getelementptr inbounds %"class.node::EmbedderSnapshotData", ptr %10, i32 0, i32 0
  %11 = load ptr, ptr %impl_11, align 8
  %isnull = icmp eq ptr %11, null
  br i1 %isnull, label %delete.end, label %delete.notnull

delete.notnull:                                   ; preds = %if.then10
  call void @_ZN4node12SnapshotDataD1Ev(ptr noundef nonnull align 8 dereferenceable(416) %11) #3
  call void @_ZdlPv(ptr noundef %11) #19
  br label %delete.end

delete.end:                                       ; preds = %delete.notnull, %if.then10
  br label %if.end12

if.end12:                                         ; preds = %delete.end, %land.lhs.true, %do.end6
  %12 = load ptr, ptr %data.addr, align 8
  %isnull13 = icmp eq ptr %12, null
  br i1 %isnull13, label %delete.end15, label %delete.notnull14

delete.notnull14:                                 ; preds = %if.end12
  call void @_ZdlPv(ptr noundef %12) #19
  br label %delete.end15

delete.end15:                                     ; preds = %delete.notnull14, %if.end12
  ret void
}