; Function Attrs: mustprogress nounwind uwtable
define dso_local void @_ZNK4node20EmbedderSnapshotData18DeleteSnapshotDataclEPKS0_(ptr nocapture noundef nonnull readnone align 1 dereferenceable(1) %this, ptr noundef %data) local_unnamed_addr #3 align 2 {
entry:
  %owns_impl_ = getelementptr inbounds i8, ptr %data, i64 8
  %0 = load i8, ptr %owns_impl_, align 8
  %1 = and i8 %0, 1
  %tobool.not = icmp eq i8 %1, 0
  br i1 %tobool.not, label %delete.end15, label %lor.rhs

lor.rhs:                                          ; preds = %entry
  %2 = load ptr, ptr %data, align 8
  %tobool2 = icmp eq ptr %2, null
  br i1 %tobool2, label %do.body5, label %land.lhs.true

do.body5:                                         ; preds = %lor.rhs
  tail call void @_ZN4node6AssertERKNS_13AssertionInfoE(ptr noundef nonnull align 8 dereferenceable(24) @_ZZNK4node20EmbedderSnapshotData18DeleteSnapshotDataclEPKS0_E4args) #22
  tail call void @abort() #23
  unreachable

land.lhs.true:                                    ; preds = %lor.rhs
  %3 = load i32, ptr %2, align 8
  %cmp = icmp eq i32 %3, 0
  br i1 %cmp, label %delete.notnull, label %delete.end15

delete.notnull:                                   ; preds = %land.lhs.true
  tail call void @_ZN4node12SnapshotDataD1Ev(ptr noundef nonnull align 8 dereferenceable(416) %2) #22
  tail call void @_ZdlPv(ptr noundef nonnull %2) #26
  br label %delete.end15

delete.end15:                                     ; preds = %entry, %delete.notnull, %land.lhs.true
  tail call void @_ZdlPv(ptr noundef nonnull %data) #26
  ret void
}